; Function Attrs: null_pointer_is_valid sspstrong uwtable
define internal void @dtap_sm_req_mbms_act(ptr noundef %0, ptr noundef %1, ptr noundef initializes((348, 352)) %2, i32 noundef %3, i32 noundef %4) #1 {
  %6 = getelementptr inbounds nuw i8, ptr %2, i64 348
  store i32 0, ptr %6, align 4
  %7 = icmp sgt i32 %4, 0
  br i1 %7, label %8, label %14

8:                                                ; preds = %5
  %9 = tail call zeroext i16 @elem_v(ptr noundef %0, ptr noundef %1, ptr noundef %2, i32 noundef 5, i32 noundef 44, i32 noundef %3, ptr noundef nonnull @.str.1145)
  %.not = icmp eq i16 %9, 0
  br i1 %.not, label %14, label %10

10:                                               ; preds = %8
  %11 = zext i16 %9 to i32
  %12 = add i32 %3, %11
  %13 = sub nsw i32 %4, %11
  br label %17

14:                                               ; preds = %8, %5
  %15 = tail call ptr @get_gsm_a_msg_string(i32 noundef 5, i32 noundef 44)
  %16 = tail call ptr (ptr, ptr, ptr, ptr, i32, i32, ptr, ...) @proto_tree_add_expert_format(ptr noundef %1, ptr noundef %2, ptr noundef nonnull @ei_gsm_a_gm_missing_mandatory_element, ptr noundef %0, i32 noundef %3, i32 noundef 0, ptr noundef nonnull @.str.1095, ptr noundef %15, ptr noundef nonnull @.str.1145)
  br label %17

17:                                               ; preds = %14, %10
  %.061 = phi i32 [ %12, %10 ], [ %3, %14 ]
  %.0 = phi i32 [ %13, %10 ], [ %4, %14 ]
  %18 = icmp sgt i32 %.0, 0
  br i1 %18, label %19, label %25

19:                                               ; preds = %17
  %20 = tail call zeroext i16 @elem_lv(ptr noundef %0, ptr noundef %1, ptr noundef %2, i32 noundef 5, i32 noundef 47, i32 noundef %.061, i32 noundef %.0, ptr noundef nonnull @.str.1146)
  %.not70 = icmp eq i16 %20, 0
  br i1 %.not70, label %25, label %21

21:                                               ; preds = %19
  %22 = zext i16 %20 to i32
  %23 = add i32 %.061, %22
  %24 = sub nsw i32 %.0, %22
  br label %28

25:                                               ; preds = %19, %17
  %26 = tail call ptr @get_gsm_a_msg_string(i32 noundef 5, i32 noundef 47)
  %27 = tail call ptr (ptr, ptr, ptr, ptr, i32, i32, ptr, ...) @proto_tree_add_expert_format(ptr noundef %1, ptr noundef %2, ptr noundef nonnull @ei_gsm_a_gm_missing_mandatory_element, ptr noundef %0, i32 noundef %.061, i32 noundef 0, ptr noundef nonnull @.str.1095, ptr noundef %26, ptr noundef nonnull @.str.1146)
  br label %28

28:                                               ; preds = %25, %21
  %.162 = phi i32 [ %23, %21 ], [ %.061, %25 ]
  %.1 = phi i32 [ %24, %21 ], [ %.0, %25 ]
  %29 = icmp sgt i32 %.1, 0
  br i1 %29, label %30, label %36

30:                                               ; preds = %28
  %31 = tail call zeroext i16 @elem_lv(ptr noundef %0, ptr noundef %1, ptr noundef %2, i32 noundef 5, i32 noundef 43, i32 noundef %.162, i32 noundef %.1, ptr noundef null)
  %.not71 = icmp eq i16 %31, 0
  br i1 %.not71, label %36, label %32

32:                                               ; preds = %30
  %33 = zext i16 %31 to i32
  %34 = add i32 %.162, %33
  %35 = sub nsw i32 %.1, %33
  br label %39

36:                                               ; preds = %30, %28
  %37 = tail call ptr @get_gsm_a_msg_string(i32 noundef 5, i32 noundef 43)
  %38 = tail call ptr (ptr, ptr, ptr, ptr, i32, i32, ptr, ...) @proto_tree_add_expert_format(ptr noundef %1, ptr noundef %2, ptr noundef nonnull @ei_gsm_a_gm_missing_mandatory_element, ptr noundef %0, i32 noundef %.162, i32 noundef 0, ptr noundef nonnull @.str.1095, ptr noundef %37, ptr noundef nonnull @.str.83)
  br label %39

39:                                               ; preds = %36, %32
  %.263 = phi i32 [ %34, %32 ], [ %.162, %36 ]
  %.2 = phi i32 [ %35, %32 ], [ %.1, %36 ]
  %40 = icmp slt i32 %.2, 1
  br i1 %40, label %48, label %41

41:                                               ; preds = %39
  %42 = tail call zeroext i16 @elem_tlv(ptr noundef %0, ptr noundef %1, ptr noundef %2, i8 noundef zeroext 53, i32 noundef 5, i32 noundef 60, i32 noundef %.263, i32 noundef %.2, ptr noundef null)
  %43 = zext i16 %42 to i32
  %.not73 = icmp eq i32 %.2, %43
  br i1 %.not73, label %48, label %44

44:                                               ; preds = %41
  %45 = sub nsw i32 %.2, %43
  %46 = add i32 %.263, %43
  %47 = tail call ptr @proto_tree_add_expert(ptr noundef %1, ptr noundef %2, ptr noundef nonnull @ei_gsm_a_gm_extraneous_data, ptr noundef %0, i32 noundef %46, i32 noundef %45)
  br label %48

48:                                               ; preds = %41, %44, %39
  ret void
}